target datalayout = "e-m:e-p270:32:32-p271:32:32-p272:64:64-i64:64-i128:128-f80:128-n8:16:32:64-S128"
target triple = "x86_64-pc-linux-gnu"

%struct._wmem_tree_key_t = type { i32, ptr }
%struct.nstime_t = type { i64, i32 }
%struct._packet_info = type { ptr, ptr, i32, i32, %struct.nstime_t, %struct.nstime_t, %struct.nstime_t, i8, ptr, ptr, ptr, ptr, %struct._address, %struct._address, %struct._address, %struct._address, %struct._address, %struct._address, i32, ptr, i8, [3 x i8], %struct.anon, i32, i32, i32, i32, ptr, i8, ptr, ptr, i16, i16, i32, i32, i16, i32, i32, ptr, ptr, ptr, i8, i8, i16, i16, i16, i32, i16, i16, ptr, ptr, ptr, ptr, ptr, i32, i32 }
%struct._address = type { i32, i32, ptr, ptr }
%struct.anon = type { i8, [3 x i8] }
%struct._frame_data = type <{ i32, i32, i32, i32, i32, [4 x i8], i64, ptr, ptr, ptr, i8, i16, [5 x i8], %struct.nstime_t, %struct.nstime_t, i32, i32 }>
%struct._sep_entry_t = type { i8, i8, i8, i8, i32, i32, i16, i8, ptr, i32, i32 }

@hf_btavdtp_sep_seid = internal global i32 0, align 4
@hf_btavdtp_sep_inuse = internal global i32 0, align 4
@hf_btavdtp_sep_rfa0 = internal global i32 0, align 4
@hf_btavdtp_sep_media_type = internal global i32 0, align 4
@hf_btavdtp_sep_type = internal global i32 0, align 4
@hf_btavdtp_sep_rfa1 = internal global i32 0, align 4
@hf_btavdtp_acp_sep = internal global i32 0, align 4
@ett_btavdtp_sep = internal global i32 0, align 4
@sep_list = internal global ptr null, align 8
@sep_type_vals = internal constant [3 x { i32, [4 x i8], ptr }] [{ i32, [4 x i8], ptr } { i32 0, [4 x i8] zeroinitializer, ptr @.str.471 }, { i32, [4 x i8], ptr } { i32 1, [4 x i8] zeroinitializer, ptr @.str.472 }, { i32, [4 x i8], ptr } zeroinitializer], align 16
@.str.525 = private unnamed_addr constant [8 x i8] c"unknown\00", align 1
@.str.526 = private unnamed_addr constant [32 x i8] c"ACP SEP [%u - %s %s] item %u/%u\00", align 1
@.str.527 = private unnamed_addr constant [13 x i8] c" - items: %u\00", align 1

; Function Attrs: null_pointer_is_valid sspstrong uwtable
define internal i32 @dissect_sep(ptr noundef %0, ptr noundef %1, ptr noundef %2, i32 noundef %3, i32 noundef %4, i32 noundef %5, i32 noundef %6) #0 {
  %8 = alloca ptr, align 8
  %9 = alloca ptr, align 8
  %10 = alloca ptr, align 8
  %11 = alloca i32, align 4
  %12 = alloca i32, align 4
  %13 = alloca i32, align 4
  %14 = alloca i32, align 4
  %15 = alloca ptr, align 8
  %16 = alloca ptr, align 8
  %17 = alloca i32, align 4
  %18 = alloca i32, align 4
  %19 = alloca i32, align 4
  %20 = alloca i32, align 4
  %21 = alloca i32, align 4
  %22 = alloca i32, align 4
  %23 = alloca i32, align 4
  %24 = alloca ptr, align 8
  %25 = alloca [7 x %struct._wmem_tree_key_t], align 16
  %26 = alloca i32, align 4
  store ptr %0, ptr %8, align 8
  store ptr %1, ptr %9, align 8
  store ptr %2, ptr %10, align 8
  store i32 %3, ptr %11, align 4
  store i32 %4, ptr %12, align 4
  store i32 %5, ptr %13, align 4
  store i32 %6, ptr %14, align 4
  call void @llvm.lifetime.start.p0(i64 8, ptr %15) #7
  call void @llvm.lifetime.start.p0(i64 8, ptr %16) #7
  call void @llvm.lifetime.start.p0(i64 4, ptr %17) #7
  store i32 1, ptr %17, align 4
  call void @llvm.lifetime.start.p0(i64 4, ptr %18) #7
  call void @llvm.lifetime.start.p0(i64 4, ptr %19) #7
  call void @llvm.lifetime.start.p0(i64 4, ptr %20) #7
  call void @llvm.lifetime.start.p0(i64 4, ptr %21) #7
  call void @llvm.lifetime.start.p0(i64 4, ptr %22) #7
  call void @llvm.lifetime.start.p0(i64 4, ptr %23) #7
  %27 = load ptr, ptr %9, align 8
  %28 = getelementptr inbounds nuw %struct._packet_info, ptr %27, i32 0, i32 37
  %29 = load i32, ptr %28, align 4
  %30 = icmp eq i32 %29, 0
  %31 = select i1 %30, i32 1, i32 0
  store i32 %31, ptr %23, align 4
  %32 = load ptr, ptr %8, align 8
  %33 = load i32, ptr %11, align 4
  %34 = call i32 @tvb_reported_length_remaining(ptr noundef %32, i32 noundef %33)
  %35 = sdiv i32 %34, 2
  store i32 %35, ptr %22, align 4
  br label %36

36:                                               ; preds = %179, %7
  %37 = load ptr, ptr %8, align 8
  %38 = load i32, ptr %11, align 4
  %39 = call i32 @tvb_reported_length_remaining(ptr noundef %37, i32 noundef %38)
  %40 = icmp sgt i32 %39, 0
  br i1 %40, label %41, label %184

41:                                               ; preds = %36
  %42 = load ptr, ptr %8, align 8
  %43 = load i32, ptr %11, align 4
  %44 = call zeroext i8 @tvb_get_uint8(ptr noundef %42, i32 noundef %43)
  %45 = zext i8 %44 to i32
  store i32 %45, ptr %20, align 4
  %46 = load i32, ptr %20, align 4
  %47 = and i32 %46, 2
  store i32 %47, ptr %21, align 4
  %48 = load i32, ptr %20, align 4
  %49 = lshr i32 %48, 2
  store i32 %49, ptr %20, align 4
  %50 = load ptr, ptr %8, align 8
  %51 = load i32, ptr %11, align 4
  %52 = add i32 %51, 1
  %53 = call zeroext i8 @tvb_get_uint8(ptr noundef %50, i32 noundef %52)
  %54 = zext i8 %53 to i32
  %55 = ashr i32 %54, 4
  store i32 %55, ptr %18, align 4
  %56 = load ptr, ptr %8, align 8
  %57 = load i32, ptr %11, align 4
  %58 = add i32 %57, 1
  %59 = call zeroext i8 @tvb_get_uint8(ptr noundef %56, i32 noundef %58)
  %60 = zext i8 %59 to i32
  %61 = and i32 %60, 8
  %62 = ashr i32 %61, 3
  store i32 %62, ptr %19, align 4
  %63 = load ptr, ptr %10, align 8
  %64 = load i32, ptr @hf_btavdtp_acp_sep, align 4
  %65 = load ptr, ptr %8, align 8
  %66 = load i32, ptr %11, align 4
  %67 = load i32, ptr %20, align 4
  %68 = load i32, ptr %18, align 4
  %69 = call ptr @val_to_str_const(i32 noundef %68, ptr noundef @media_type_vals, ptr noundef @.str.525)
  %70 = load i32, ptr %19, align 4
  %71 = call ptr @val_to_str_const(i32 noundef %70, ptr noundef @sep_type_vals, ptr noundef @.str.525)
  %72 = load i32, ptr %17, align 4
  %73 = load i32, ptr %22, align 4
  %74 = call ptr (ptr, i32, ptr, i32, i32, ptr, ...) @proto_tree_add_none_format(ptr noundef %63, i32 noundef %64, ptr noundef %65, i32 noundef %66, i32 noundef 2, ptr noundef @.str.526, i32 noundef %67, ptr noundef %69, ptr noundef %71, i32 noundef %72, i32 noundef %73)
  store ptr %74, ptr %16, align 8
  %75 = load ptr, ptr %16, align 8
  %76 = load i32, ptr @ett_btavdtp_sep, align 4
  %77 = call ptr @proto_item_add_subtree(ptr noundef %75, i32 noundef %76)
  store ptr %77, ptr %15, align 8
  %78 = load ptr, ptr %15, align 8
  %79 = load i32, ptr @hf_btavdtp_sep_seid, align 4
  %80 = load ptr, ptr %8, align 8
  %81 = load i32, ptr %11, align 4
  %82 = call ptr @proto_tree_add_item(ptr noundef %78, i32 noundef %79, ptr noundef %80, i32 noundef %81, i32 noundef 1, i32 noundef 0)
  %83 = load ptr, ptr %15, align 8
  %84 = load i32, ptr @hf_btavdtp_sep_inuse, align 4
  %85 = load ptr, ptr %8, align 8
  %86 = load i32, ptr %11, align 4
  %87 = call ptr @proto_tree_add_item(ptr noundef %83, i32 noundef %84, ptr noundef %85, i32 noundef %86, i32 noundef 1, i32 noundef 0)
  %88 = load ptr, ptr %15, align 8
  %89 = load i32, ptr @hf_btavdtp_sep_rfa0, align 4
  %90 = load ptr, ptr %8, align 8
  %91 = load i32, ptr %11, align 4
  %92 = call ptr @proto_tree_add_item(ptr noundef %88, i32 noundef %89, ptr noundef %90, i32 noundef %91, i32 noundef 1, i32 noundef 0)
  %93 = load i32, ptr %11, align 4
  %94 = add i32 %93, 1
  store i32 %94, ptr %11, align 4
  %95 = load ptr, ptr %15, align 8
  %96 = load i32, ptr @hf_btavdtp_sep_media_type, align 4
  %97 = load ptr, ptr %8, align 8
  %98 = load i32, ptr %11, align 4
  %99 = call ptr @proto_tree_add_item(ptr noundef %95, i32 noundef %96, ptr noundef %97, i32 noundef %98, i32 noundef 1, i32 noundef 0)
  %100 = load ptr, ptr %15, align 8
  %101 = load i32, ptr @hf_btavdtp_sep_type, align 4
  %102 = load ptr, ptr %8, align 8
  %103 = load i32, ptr %11, align 4
  %104 = call ptr @proto_tree_add_item(ptr noundef %100, i32 noundef %101, ptr noundef %102, i32 noundef %103, i32 noundef 1, i32 noundef 0)
  %105 = load ptr, ptr %15, align 8
  %106 = load i32, ptr @hf_btavdtp_sep_rfa1, align 4
  %107 = load ptr, ptr %8, align 8
  %108 = load i32, ptr %11, align 4
  %109 = call ptr @proto_tree_add_item(ptr noundef %105, i32 noundef %106, ptr noundef %107, i32 noundef %108, i32 noundef 1, i32 noundef 0)
  %110 = load ptr, ptr %9, align 8
  %111 = getelementptr inbounds nuw %struct._packet_info, ptr %110, i32 0, i32 8
  %112 = load ptr, ptr %111, align 8
  %113 = getelementptr inbounds nuw %struct._frame_data, ptr %112, i32 0, i32 11
  %114 = load i16, ptr %113, align 1
  %115 = lshr i16 %114, 3
  %116 = and i16 %115, 1
  %117 = zext i16 %116 to i32
  %118 = icmp ne i32 %117, 0
  br i1 %118, label %179, label %119

119:                                              ; preds = %41
  call void @llvm.lifetime.start.p0(i64 8, ptr %24) #7
  call void @llvm.lifetime.start.p0(i64 112, ptr %25) #7
  call void @llvm.lifetime.start.p0(i64 4, ptr %26) #7
  %120 = load ptr, ptr %9, align 8
  %121 = getelementptr inbounds nuw %struct._packet_info, ptr %120, i32 0, i32 3
  %122 = load i32, ptr %121, align 4
  store i32 %122, ptr %26, align 4
  %123 = getelementptr [7 x %struct._wmem_tree_key_t], ptr %25, i64 0, i64 0
  %124 = getelementptr inbounds nuw %struct._wmem_tree_key_t, ptr %123, i32 0, i32 0
  store i32 1, ptr %124, align 16
  %125 = getelementptr [7 x %struct._wmem_tree_key_t], ptr %25, i64 0, i64 0
  %126 = getelementptr inbounds nuw %struct._wmem_tree_key_t, ptr %125, i32 0, i32 1
  store ptr %12, ptr %126, align 8
  %127 = getelementptr [7 x %struct._wmem_tree_key_t], ptr %25, i64 0, i64 1
  %128 = getelementptr inbounds nuw %struct._wmem_tree_key_t, ptr %127, i32 0, i32 0
  store i32 1, ptr %128, align 16
  %129 = getelementptr [7 x %struct._wmem_tree_key_t], ptr %25, i64 0, i64 1
  %130 = getelementptr inbounds nuw %struct._wmem_tree_key_t, ptr %129, i32 0, i32 1
  store ptr %13, ptr %130, align 8
  %131 = getelementptr [7 x %struct._wmem_tree_key_t], ptr %25, i64 0, i64 2
  %132 = getelementptr inbounds nuw %struct._wmem_tree_key_t, ptr %131, i32 0, i32 0
  store i32 1, ptr %132, align 16
  %133 = getelementptr [7 x %struct._wmem_tree_key_t], ptr %25, i64 0, i64 2
  %134 = getelementptr inbounds nuw %struct._wmem_tree_key_t, ptr %133, i32 0, i32 1
  store ptr %14, ptr %134, align 8
  %135 = getelementptr [7 x %struct._wmem_tree_key_t], ptr %25, i64 0, i64 3
  %136 = getelementptr inbounds nuw %struct._wmem_tree_key_t, ptr %135, i32 0, i32 0
  store i32 1, ptr %136, align 16
  %137 = getelementptr [7 x %struct._wmem_tree_key_t], ptr %25, i64 0, i64 3
  %138 = getelementptr inbounds nuw %struct._wmem_tree_key_t, ptr %137, i32 0, i32 1
  store ptr %23, ptr %138, align 8
  %139 = getelementptr [7 x %struct._wmem_tree_key_t], ptr %25, i64 0, i64 4
  %140 = getelementptr inbounds nuw %struct._wmem_tree_key_t, ptr %139, i32 0, i32 0
  store i32 1, ptr %140, align 16
  %141 = getelementptr [7 x %struct._wmem_tree_key_t], ptr %25, i64 0, i64 4
  %142 = getelementptr inbounds nuw %struct._wmem_tree_key_t, ptr %141, i32 0, i32 1
  store ptr %20, ptr %142, align 8
  %143 = getelementptr [7 x %struct._wmem_tree_key_t], ptr %25, i64 0, i64 5
  %144 = getelementptr inbounds nuw %struct._wmem_tree_key_t, ptr %143, i32 0, i32 0
  store i32 1, ptr %144, align 16
  %145 = getelementptr [7 x %struct._wmem_tree_key_t], ptr %25, i64 0, i64 5
  %146 = getelementptr inbounds nuw %struct._wmem_tree_key_t, ptr %145, i32 0, i32 1
  store ptr %26, ptr %146, align 8
  %147 = getelementptr [7 x %struct._wmem_tree_key_t], ptr %25, i64 0, i64 6
  %148 = getelementptr inbounds nuw %struct._wmem_tree_key_t, ptr %147, i32 0, i32 0
  store i32 0, ptr %148, align 16
  %149 = getelementptr [7 x %struct._wmem_tree_key_t], ptr %25, i64 0, i64 6
  %150 = getelementptr inbounds nuw %struct._wmem_tree_key_t, ptr %149, i32 0, i32 1
  store ptr null, ptr %150, align 8
  %151 = call ptr @wmem_file_scope()
  %152 = call noalias ptr @wmem_alloc0(ptr noundef %151, i64 noundef 32) #9
  store ptr %152, ptr %24, align 8
  %153 = load i32, ptr %20, align 4
  %154 = trunc i32 %153 to i8
  %155 = load ptr, ptr %24, align 8
  %156 = getelementptr inbounds nuw %struct._sep_entry_t, ptr %155, i32 0, i32 0
  store i8 %154, ptr %156, align 8
  %157 = load i32, ptr %19, align 4
  %158 = trunc i32 %157 to i8
  %159 = load ptr, ptr %24, align 8
  %160 = getelementptr inbounds nuw %struct._sep_entry_t, ptr %159, i32 0, i32 1
  store i8 %158, ptr %160, align 1
  %161 = load i32, ptr %18, align 4
  %162 = trunc i32 %161 to i8
  %163 = load ptr, ptr %24, align 8
  %164 = getelementptr inbounds nuw %struct._sep_entry_t, ptr %163, i32 0, i32 2
  store i8 %162, ptr %164, align 2
  %165 = load ptr, ptr %24, align 8
  %166 = getelementptr inbounds nuw %struct._sep_entry_t, ptr %165, i32 0, i32 4
  store i32 -1, ptr %166, align 4
  %167 = load i32, ptr %21, align 4
  %168 = icmp ne i32 %167, 0
  br i1 %168, label %169, label %172

169:                                              ; preds = %119
  %170 = load ptr, ptr %24, align 8
  %171 = getelementptr inbounds nuw %struct._sep_entry_t, ptr %170, i32 0, i32 10
  store i32 2, ptr %171, align 4
  br label %175

172:                                              ; preds = %119
  %173 = load ptr, ptr %24, align 8
  %174 = getelementptr inbounds nuw %struct._sep_entry_t, ptr %173, i32 0, i32 10
  store i32 0, ptr %174, align 4
  br label %175

175:                                              ; preds = %172, %169
  %176 = load ptr, ptr @sep_list, align 8
  %177 = getelementptr inbounds [7 x %struct._wmem_tree_key_t], ptr %25, i64 0, i64 0
  %178 = load ptr, ptr %24, align 8
  call void @wmem_tree_insert32_array(ptr noundef %176, ptr noundef %177, ptr noundef %178)
  call void @llvm.lifetime.end.p0(i64 4, ptr %26) #7
  call void @llvm.lifetime.end.p0(i64 112, ptr %25) #7
  call void @llvm.lifetime.end.p0(i64 8, ptr %24) #7
  br label %179

179:                                              ; preds = %175, %41
  %180 = load i32, ptr %11, align 4
  %181 = add i32 %180, 1
  store i32 %181, ptr %11, align 4
  %182 = load i32, ptr %17, align 4
  %183 = add i32 %182, 1
  store i32 %183, ptr %17, align 4
  br label %36, !llvm.loop !12

184:                                              ; preds = %36
  %185 = load ptr, ptr %9, align 8
  %186 = getelementptr inbounds nuw %struct._packet_info, ptr %185, i32 0, i32 1
  %187 = load ptr, ptr %186, align 8
  %188 = load i32, ptr %22, align 4
  call void (ptr, i32, ptr, ...) @col_append_fstr(ptr noundef %187, i32 noundef 25, ptr noundef @.str.527, i32 noundef %188)
  %189 = load i32, ptr %11, align 4
  call void @llvm.lifetime.end.p0(i64 4, ptr %23) #7
  call void @llvm.lifetime.end.p0(i64 4, ptr %22) #7
  call void @llvm.lifetime.end.p0(i64 4, ptr %21) #7
  call void @llvm.lifetime.end.p0(i64 4, ptr %20) #7
  call void @llvm.lifetime.end.p0(i64 4, ptr %19) #7
  call void @llvm.lifetime.end.p0(i64 4, ptr %18) #7
  call void @llvm.lifetime.end.p0(i64 4, ptr %17) #7
  call void @llvm.lifetime.end.p0(i64 8, ptr %16) #7
  call void @llvm.lifetime.end.p0(i64 8, ptr %15) #7
  ret i32 %189
}