; Function Attrs: null_pointer_is_valid sspstrong uwtable
define internal fastcc noundef i32 @dissect_sep(ptr noundef %0, ptr noundef readonly captures(none) %1, ptr noundef %2, i32 noundef range(i32 2, 4) %3, i32 noundef %4, i32 noundef %5, i32 noundef %6) unnamed_addr #0 {
  %8 = alloca i32, align 4
  %9 = alloca i32, align 4
  %10 = alloca i32, align 4
  %11 = alloca i32, align 4
  %12 = alloca i32, align 4
  %13 = alloca [7 x %struct._wmem_tree_key_t], align 16
  %14 = alloca i32, align 4
  store i32 %4, ptr %8, align 4
  store i32 %5, ptr %9, align 4
  store i32 %6, ptr %10, align 4
  call void @llvm.lifetime.start.p0(i64 4, ptr nonnull %11) #7
  call void @llvm.lifetime.start.p0(i64 4, ptr nonnull %12) #7
  %15 = getelementptr inbounds nuw i8, ptr %1, i64 348
  %16 = load i32, ptr %15, align 4
  %17 = icmp eq i32 %16, 0
  %18 = zext i1 %17 to i32
  store i32 %18, ptr %12, align 4
  %19 = tail call i32 @tvb_reported_length_remaining(ptr noundef %0, i32 noundef %3)
  %20 = sdiv i32 %19, 2
  %21 = tail call i32 @tvb_reported_length_remaining(ptr noundef %0, i32 noundef %3)
  %22 = icmp sgt i32 %21, 0
  br i1 %22, label %.lr.ph, label %._crit_edge

.lr.ph:                                           ; preds = %7
  %23 = getelementptr inbounds nuw i8, ptr %1, i64 80
  %24 = getelementptr inbounds nuw i8, ptr %1, i64 20
  %25 = getelementptr inbounds nuw i8, ptr %13, i64 8
  %26 = getelementptr inbounds nuw i8, ptr %13, i64 16
  %27 = getelementptr inbounds nuw i8, ptr %13, i64 24
  %28 = getelementptr inbounds nuw i8, ptr %13, i64 32
  %29 = getelementptr inbounds nuw i8, ptr %13, i64 40
  %30 = getelementptr inbounds nuw i8, ptr %13, i64 48
  %31 = getelementptr inbounds nuw i8, ptr %13, i64 56
  %32 = getelementptr inbounds nuw i8, ptr %13, i64 64
  %33 = getelementptr inbounds nuw i8, ptr %13, i64 72
  %34 = getelementptr inbounds nuw i8, ptr %13, i64 80
  %35 = getelementptr inbounds nuw i8, ptr %13, i64 88
  %36 = getelementptr inbounds nuw i8, ptr %13, i64 96
  %37 = getelementptr inbounds nuw i8, ptr %13, i64 104
  br label %38

38:                                               ; preds = %.lr.ph, %85
  %.057 = phi i32 [ %3, %.lr.ph ], [ %86, %85 ]
  %.05456 = phi i32 [ 1, %.lr.ph ], [ %87, %85 ]
  %39 = call zeroext i8 @tvb_get_uint8(ptr noundef %0, i32 noundef %.057)
  %40 = zext i8 %39 to i32
  %41 = lshr i32 %40, 2
  store i32 %41, ptr %11, align 4
  %42 = add i32 %.057, 1
  %43 = call zeroext i8 @tvb_get_uint8(ptr noundef %0, i32 noundef %42)
  %44 = lshr i8 %43, 4
  %45 = zext nneg i8 %44 to i32
  %46 = call zeroext i8 @tvb_get_uint8(ptr noundef %0, i32 noundef %42)
  %47 = lshr i8 %46, 3
  %48 = and i8 %47, 1
  %49 = zext nneg i8 %48 to i32
  %50 = load i32, ptr @hf_btavdtp_acp_sep, align 4
  %51 = load i32, ptr %11, align 4
  %52 = call ptr @val_to_str_const(i32 noundef %45, ptr noundef nonnull @media_type_vals, ptr noundef nonnull @.str.525)
  %53 = call ptr @val_to_str_const(i32 noundef %49, ptr noundef nonnull @sep_type_vals, ptr noundef nonnull @.str.525)
  %54 = call ptr (ptr, i32, ptr, i32, i32, ptr, ...) @proto_tree_add_none_format(ptr noundef %2, i32 noundef %50, ptr noundef %0, i32 noundef %.057, i32 noundef 2, ptr noundef nonnull @.str.526, i32 noundef %51, ptr noundef %52, ptr noundef %53, i32 noundef %.05456, i32 noundef %20)
  %55 = load i32, ptr @ett_btavdtp_sep, align 4
  %56 = call ptr @proto_item_add_subtree(ptr noundef %54, i32 noundef %55)
  %57 = load i32, ptr @hf_btavdtp_sep_seid, align 4
  %58 = call ptr @proto_tree_add_item(ptr noundef %56, i32 noundef %57, ptr noundef %0, i32 noundef %.057, i32 noundef 1, i32 noundef 0)
  %59 = load i32, ptr @hf_btavdtp_sep_inuse, align 4
  %60 = call ptr @proto_tree_add_item(ptr noundef %56, i32 noundef %59, ptr noundef %0, i32 noundef %.057, i32 noundef 1, i32 noundef 0)
  %61 = load i32, ptr @hf_btavdtp_sep_rfa0, align 4
  %62 = call ptr @proto_tree_add_item(ptr noundef %56, i32 noundef %61, ptr noundef %0, i32 noundef %.057, i32 noundef 1, i32 noundef 0)
  %63 = load i32, ptr @hf_btavdtp_sep_media_type, align 4
  %64 = call ptr @proto_tree_add_item(ptr noundef %56, i32 noundef %63, ptr noundef %0, i32 noundef %42, i32 noundef 1, i32 noundef 0)
  %65 = load i32, ptr @hf_btavdtp_sep_type, align 4
  %66 = call ptr @proto_tree_add_item(ptr noundef %56, i32 noundef %65, ptr noundef %0, i32 noundef %42, i32 noundef 1, i32 noundef 0)
  %67 = load i32, ptr @hf_btavdtp_sep_rfa1, align 4
  %68 = call ptr @proto_tree_add_item(ptr noundef %56, i32 noundef %67, ptr noundef %0, i32 noundef %42, i32 noundef 1, i32 noundef 0)
  %69 = load ptr, ptr %23, align 8
  %70 = getelementptr inbounds nuw i8, ptr %69, i64 57
  %71 = load i16, ptr %70, align 1
  %72 = and i16 %71, 8
  %.not = icmp eq i16 %72, 0
  br i1 %.not, label %73, label %85

73:                                               ; preds = %38
  %74 = and i32 %40, 2
  call void @llvm.lifetime.start.p0(i64 112, ptr nonnull %13) #7
  call void @llvm.lifetime.start.p0(i64 4, ptr nonnull %14) #7
  %75 = load i32, ptr %24, align 4
  store i32 %75, ptr %14, align 4
  store i32 1, ptr %13, align 16
  store ptr %8, ptr %25, align 8
  store i32 1, ptr %26, align 16
  store ptr %9, ptr %27, align 8
  store i32 1, ptr %28, align 16
  store ptr %10, ptr %29, align 8
  store i32 1, ptr %30, align 16
  store ptr %12, ptr %31, align 8
  store i32 1, ptr %32, align 16
  store ptr %11, ptr %33, align 8
  store i32 1, ptr %34, align 16
  store ptr %14, ptr %35, align 8
  store i32 0, ptr %36, align 16
  store ptr null, ptr %37, align 8
  %76 = call ptr @wmem_file_scope()
  %77 = call noalias dereferenceable_or_null(32) ptr @wmem_alloc0(ptr noundef %76, i64 noundef 32) #9
  %78 = load i32, ptr %11, align 4
  %79 = trunc i32 %78 to i8
  store i8 %79, ptr %77, align 8
  %80 = getelementptr inbounds nuw i8, ptr %77, i64 1
  store i8 %48, ptr %80, align 1
  %81 = getelementptr inbounds nuw i8, ptr %77, i64 2
  store i8 %44, ptr %81, align 2
  %82 = getelementptr inbounds nuw i8, ptr %77, i64 4
  store i32 -1, ptr %82, align 4
  %83 = getelementptr inbounds nuw i8, ptr %77, i64 28
  store i32 %74, ptr %83, align 4
  %84 = load ptr, ptr @sep_list, align 8
  call void @wmem_tree_insert32_array(ptr noundef %84, ptr noundef nonnull %13, ptr noundef %77)
  call void @llvm.lifetime.end.p0(i64 4, ptr nonnull %14) #7
  call void @llvm.lifetime.end.p0(i64 112, ptr nonnull %13) #7
  br label %85

85:                                               ; preds = %73, %38
  %86 = add i32 %.057, 2
  %87 = add i32 %.05456, 1
  %88 = call i32 @tvb_reported_length_remaining(ptr noundef %0, i32 noundef %86)
  %89 = icmp sgt i32 %88, 0
  br i1 %89, label %38, label %._crit_edge, !llvm.loop !12

._crit_edge:                                      ; preds = %85, %7
  %.0.lcssa = phi i32 [ %3, %7 ], [ %86, %85 ]
  %90 = getelementptr inbounds nuw i8, ptr %1, i64 8
  %91 = load ptr, ptr %90, align 8
  call void (ptr, i32, ptr, ...) @col_append_fstr(ptr noundef %91, i32 noundef 25, ptr noundef nonnull @.str.527, i32 noundef %20)
  call void @llvm.lifetime.end.p0(i64 4, ptr nonnull %12) #7
  call void @llvm.lifetime.end.p0(i64 4, ptr nonnull %11) #7
  ret i32 %.0.lcssa
}